target datalayout = "e-m:e-p270:32:32-p271:32:32-p272:64:64-i64:64-i128:128-f80:128-n8:16:32:64-S128"
target triple = "x86_64-pc-linux-gnu"

%struct.PJconsts = type { ptr, ptr, ptr, ptr, ptr, ptr, ptr, ptr, ptr, ptr, ptr, ptr, i32, ptr, ptr, ptr, ptr, ptr, ptr, ptr, ptr, double, double, double, double, double, double, double, double, double, double, double, double, double, double, double, double, double, double, double, double, double, double, i32, i32, i32, i32, i32, i32, i32, i32, i32, i32, i32, ptr, ptr, ptr, ptr, ptr, ptr, double, double, double, double, double, double, double, double, double, double, double, i32, [7 x double], i32, ptr, ptr, double, double, i32, [4 x i8], %"class.std::shared_ptr", i8, double, i8, %"class.std::__cxx11::basic_string", %"class.std::__cxx11::basic_string", %"class.std::__cxx11::basic_string", i8, %"class.std::vector", i32, %"class.std::vector.3", i32, i8, i8, i8, ptr }
%"class.std::shared_ptr" = type { %"class.std::__shared_ptr" }
%"class.std::__shared_ptr" = type { ptr, %"class.std::__shared_count" }
%"class.std::__shared_count" = type { ptr }
%"class.std::__cxx11::basic_string" = type { %"struct.std::__cxx11::basic_string<char>::_Alloc_hider", i64, %union.anon }
%"struct.std::__cxx11::basic_string<char>::_Alloc_hider" = type { ptr }
%union.anon = type { i64, [8 x i8] }
%"class.std::vector" = type { %"struct.std::_Vector_base" }
%"struct.std::_Vector_base" = type { %"struct.std::_Vector_base<osgeo::proj::operation::GridDescription, std::allocator<osgeo::proj::operation::GridDescription>>::_Vector_impl" }
%"struct.std::_Vector_base<osgeo::proj::operation::GridDescription, std::allocator<osgeo::proj::operation::GridDescription>>::_Vector_impl" = type { %"struct.std::_Vector_base<osgeo::proj::operation::GridDescription, std::allocator<osgeo::proj::operation::GridDescription>>::_Vector_impl_data" }
%"struct.std::_Vector_base<osgeo::proj::operation::GridDescription, std::allocator<osgeo::proj::operation::GridDescription>>::_Vector_impl_data" = type { ptr, ptr, ptr }
%"class.std::vector.3" = type { %"struct.std::_Vector_base.4" }
%"struct.std::_Vector_base.4" = type { %"struct.std::_Vector_base<PJCoordOperation, std::allocator<PJCoordOperation>>::_Vector_impl" }
%"struct.std::_Vector_base<PJCoordOperation, std::allocator<PJCoordOperation>>::_Vector_impl" = type { %"struct.std::_Vector_base<PJCoordOperation, std::allocator<PJCoordOperation>>::_Vector_impl_data" }
%"struct.std::_Vector_base<PJCoordOperation, std::allocator<PJCoordOperation>>::_Vector_impl_data" = type { ptr, ptr, ptr }
%"struct.(anonymous namespace)::tmerc_data" = type { %"struct.(anonymous namespace)::EvendenSnyder", %"struct.(anonymous namespace)::PoderEngsager" }
%"struct.(anonymous namespace)::EvendenSnyder" = type { double, double, ptr }
%"struct.(anonymous namespace)::PoderEngsager" = type { double, double, [6 x double], [6 x double], [6 x double], [6 x double] }
%struct.PJ_LP = type { double, double }
%struct.PJ_XY = type { double, double }

; Function Attrs: mustprogress uwtable
define internal { double, double } @_ZL12approx_e_inv5PJ_XYP8PJconsts(double %0, double %1, ptr noundef %2) #0 {
  %4 = alloca %struct.PJ_LP, align 8
  %5 = alloca %struct.PJ_XY, align 8
  %6 = alloca ptr, align 8
  %7 = alloca ptr, align 8
  %8 = alloca double, align 8
  %9 = alloca double, align 8
  %10 = alloca double, align 8
  %11 = alloca double, align 8
  %12 = alloca double, align 8
  %13 = alloca double, align 8
  %14 = alloca double, align 8
  %15 = getelementptr inbounds nuw { double, double }, ptr %5, i32 0, i32 0
  store double %0, ptr %15, align 8
  %16 = getelementptr inbounds nuw { double, double }, ptr %5, i32 0, i32 1
  store double %1, ptr %16, align 8
  store ptr %2, ptr %6, align 8, !tbaa !3
  call void @llvm.memset.p0.i64(ptr align 8 %4, i8 0, i64 16, i1 false)
  call void @llvm.lifetime.start.p0(i64 8, ptr %7) #11
  %17 = load ptr, ptr %6, align 8, !tbaa !3
  %18 = getelementptr inbounds nuw %struct.PJconsts, ptr %17, i32 0, i32 11
  %19 = load ptr, ptr %18, align 8, !tbaa !76
  %20 = getelementptr inbounds nuw %"struct.(anonymous namespace)::tmerc_data", ptr %19, i32 0, i32 0
  store ptr %20, ptr %7, align 8, !tbaa !90
  %21 = load ptr, ptr %7, align 8, !tbaa !90
  %22 = getelementptr inbounds nuw %"struct.(anonymous namespace)::EvendenSnyder", ptr %21, i32 0, i32 1
  %23 = load double, ptr %22, align 8, !tbaa !94
  %24 = getelementptr inbounds nuw %struct.PJ_XY, ptr %5, i32 0, i32 1
  %25 = load double, ptr %24, align 8, !tbaa !100
  %26 = load ptr, ptr %6, align 8, !tbaa !3
  %27 = getelementptr inbounds nuw %struct.PJconsts, ptr %26, i32 0, i32 66
  %28 = load double, ptr %27, align 8, !tbaa !73
  %29 = fdiv double %25, %28
  %30 = fadd double %23, %29
  %31 = load ptr, ptr %7, align 8, !tbaa !90
  %32 = getelementptr inbounds nuw %"struct.(anonymous namespace)::EvendenSnyder", ptr %31, i32 0, i32 2
  %33 = load ptr, ptr %32, align 8, !tbaa !93
  %34 = call noundef double @_Z11pj_inv_mlfndPKd(double noundef %30, ptr noundef %33)
  %35 = getelementptr inbounds nuw %struct.PJ_LP, ptr %4, i32 0, i32 1
  store double %34, ptr %35, align 8, !tbaa !101
  %36 = getelementptr inbounds nuw %struct.PJ_LP, ptr %4, i32 0, i32 1
  %37 = load double, ptr %36, align 8, !tbaa !101
  %38 = call double @llvm.fabs.f64(double %37)
  %39 = fcmp oge double %38, 0x3FF921FB54442D18
  br i1 %39, label %40, label %47

40:                                               ; preds = %3
  %41 = getelementptr inbounds nuw %struct.PJ_XY, ptr %5, i32 0, i32 1
  %42 = load double, ptr %41, align 8, !tbaa !100
  %43 = fcmp olt double %42, 0.000000e+00
  %44 = select i1 %43, double 0xBFF921FB54442D18, double 0x3FF921FB54442D18
  %45 = getelementptr inbounds nuw %struct.PJ_LP, ptr %4, i32 0, i32 1
  store double %44, ptr %45, align 8, !tbaa !101
  %46 = getelementptr inbounds nuw %struct.PJ_LP, ptr %4, i32 0, i32 0
  store double 0.000000e+00, ptr %46, align 8, !tbaa !103
  br label %179

47:                                               ; preds = %3
  call void @llvm.lifetime.start.p0(i64 8, ptr %8) #11
  %48 = getelementptr inbounds nuw %struct.PJ_LP, ptr %4, i32 0, i32 1
  %49 = load double, ptr %48, align 8, !tbaa !101
  %50 = call double @sin(double noundef %49) #11, !tbaa !84
  store double %50, ptr %8, align 8, !tbaa !98
  call void @llvm.lifetime.start.p0(i64 8, ptr %9) #11
  %51 = getelementptr inbounds nuw %struct.PJ_LP, ptr %4, i32 0, i32 1
  %52 = load double, ptr %51, align 8, !tbaa !101
  %53 = call double @cos(double noundef %52) #11, !tbaa !84
  store double %53, ptr %9, align 8, !tbaa !98
  call void @llvm.lifetime.start.p0(i64 8, ptr %10) #11
  %54 = load double, ptr %9, align 8, !tbaa !98
  %55 = call double @llvm.fabs.f64(double %54)
  %56 = fcmp ogt double %55, 1.000000e-10
  br i1 %56, label %57, label %61

57:                                               ; preds = %47
  %58 = load double, ptr %8, align 8, !tbaa !98
  %59 = load double, ptr %9, align 8, !tbaa !98
  %60 = fdiv double %58, %59
  br label %62

61:                                               ; preds = %47
  br label %62

62:                                               ; preds = %61, %57
  %63 = phi double [ %60, %57 ], [ 0.000000e+00, %61 ]
  store double %63, ptr %10, align 8, !tbaa !98
  call void @llvm.lifetime.start.p0(i64 8, ptr %11) #11
  %64 = load ptr, ptr %7, align 8, !tbaa !90
  %65 = getelementptr inbounds nuw %"struct.(anonymous namespace)::EvendenSnyder", ptr %64, i32 0, i32 0
  %66 = load double, ptr %65, align 8, !tbaa !95
  %67 = load double, ptr %9, align 8, !tbaa !98
  %68 = fmul double %66, %67
  %69 = load double, ptr %9, align 8, !tbaa !98
  %70 = fmul double %68, %69
  store double %70, ptr %11, align 8, !tbaa !98
  call void @llvm.lifetime.start.p0(i64 8, ptr %12) #11
  %71 = load ptr, ptr %6, align 8, !tbaa !3
  %72 = getelementptr inbounds nuw %struct.PJconsts, ptr %71, i32 0, i32 27
  %73 = load double, ptr %72, align 8, !tbaa !71
  %74 = load double, ptr %8, align 8, !tbaa !98
  %75 = fmul double %73, %74
  %76 = load double, ptr %8, align 8, !tbaa !98
  %77 = fneg double %75
  %78 = call double @llvm.fmuladd.f64(double %77, double %76, double 1.000000e+00)
  store double %78, ptr %12, align 8, !tbaa !98
  call void @llvm.lifetime.start.p0(i64 8, ptr %13) #11
  %79 = getelementptr inbounds nuw %struct.PJ_XY, ptr %5, i32 0, i32 0
  %80 = load double, ptr %79, align 8, !tbaa !96
  %81 = load double, ptr %12, align 8, !tbaa !98
  %82 = call double @sqrt(double noundef %81) #11, !tbaa !84
  %83 = fmul double %80, %82
  %84 = load ptr, ptr %6, align 8, !tbaa !3
  %85 = getelementptr inbounds nuw %struct.PJconsts, ptr %84, i32 0, i32 66
  %86 = load double, ptr %85, align 8, !tbaa !73
  %87 = fdiv double %83, %86
  store double %87, ptr %13, align 8, !tbaa !98
  %88 = load double, ptr %10, align 8, !tbaa !98
  %89 = load double, ptr %12, align 8, !tbaa !98
  %90 = fmul double %89, %88
  store double %90, ptr %12, align 8, !tbaa !98
  %91 = load double, ptr %10, align 8, !tbaa !98
  %92 = load double, ptr %10, align 8, !tbaa !98
  %93 = fmul double %92, %91
  store double %93, ptr %10, align 8, !tbaa !98
  call void @llvm.lifetime.start.p0(i64 8, ptr %14) #11
  %94 = load double, ptr %13, align 8, !tbaa !98
  %95 = load double, ptr %13, align 8, !tbaa !98
  %96 = fmul double %94, %95
  store double %96, ptr %14, align 8, !tbaa !98
  %97 = load double, ptr %12, align 8, !tbaa !98
  %98 = load double, ptr %14, align 8, !tbaa !98
  %99 = fmul double %97, %98
  %100 = load ptr, ptr %6, align 8, !tbaa !3
  %101 = getelementptr inbounds nuw %struct.PJconsts, ptr %100, i32 0, i32 27
  %102 = load double, ptr %101, align 8, !tbaa !71
  %103 = fsub double 1.000000e+00, %102
  %104 = fdiv double %99, %103
  %105 = fmul double %104, 5.000000e-01
  %106 = load double, ptr %14, align 8, !tbaa !98
  %107 = fmul double %106, 0x3FB5555555555555
  %108 = load double, ptr %10, align 8, !tbaa !98
  %109 = load double, ptr %11, align 8, !tbaa !98
  %110 = call double @llvm.fmuladd.f64(double -9.000000e+00, double %109, double 3.000000e+00)
  %111 = call double @llvm.fmuladd.f64(double %108, double %110, double 5.000000e+00)
  %112 = load double, ptr %11, align 8, !tbaa !98
  %113 = load double, ptr %11, align 8, !tbaa !98
  %114 = call double @llvm.fmuladd.f64(double -4.000000e+00, double %113, double 1.000000e+00)
  %115 = call double @llvm.fmuladd.f64(double %112, double %114, double %111)
  %116 = load double, ptr %14, align 8, !tbaa !98
  %117 = fmul double %116, 0x3FA1111111111111
  %118 = load double, ptr %10, align 8, !tbaa !98
  %119 = load double, ptr %11, align 8, !tbaa !98
  %120 = call double @llvm.fmuladd.f64(double -2.520000e+02, double %119, double 9.000000e+01)
  %121 = load double, ptr %10, align 8, !tbaa !98
  %122 = call double @llvm.fmuladd.f64(double 4.500000e+01, double %121, double %120)
  %123 = call double @llvm.fmuladd.f64(double %118, double %122, double 6.100000e+01)
  %124 = load double, ptr %11, align 8, !tbaa !98
  %125 = call double @llvm.fmuladd.f64(double 4.600000e+01, double %124, double %123)
  %126 = load double, ptr %14, align 8, !tbaa !98
  %127 = fmul double %126, 0x3F92492492492492
  %128 = load double, ptr %10, align 8, !tbaa !98
  %129 = load double, ptr %10, align 8, !tbaa !98
  %130 = load double, ptr %10, align 8, !tbaa !98
  %131 = call double @llvm.fmuladd.f64(double 1.575000e+03, double %130, double 4.095000e+03)
  %132 = call double @llvm.fmuladd.f64(double %129, double %131, double 3.633000e+03)
  %133 = call double @llvm.fmuladd.f64(double %128, double %132, double 1.385000e+03)
  %134 = fneg double %127
  %135 = call double @llvm.fmuladd.f64(double %134, double %133, double %125)
  %136 = fneg double %117
  %137 = call double @llvm.fmuladd.f64(double %136, double %135, double %115)
  %138 = fneg double %107
  %139 = call double @llvm.fmuladd.f64(double %138, double %137, double 1.000000e+00)
  %140 = getelementptr inbounds nuw %struct.PJ_LP, ptr %4, i32 0, i32 1
  %141 = load double, ptr %140, align 8, !tbaa !101
  %142 = fneg double %105
  %143 = call double @llvm.fmuladd.f64(double %142, double %139, double %141)
  store double %143, ptr %140, align 8, !tbaa !101
  %144 = load double, ptr %13, align 8, !tbaa !98
  %145 = load double, ptr %14, align 8, !tbaa !98
  %146 = fmul double %145, 0x3FC5555555555555
  %147 = load double, ptr %10, align 8, !tbaa !98
  %148 = call double @llvm.fmuladd.f64(double 2.000000e+00, double %147, double 1.000000e+00)
  %149 = load double, ptr %11, align 8, !tbaa !98
  %150 = fadd double %148, %149
  %151 = load double, ptr %14, align 8, !tbaa !98
  %152 = fmul double %151, 5.000000e-02
  %153 = load double, ptr %10, align 8, !tbaa !98
  %154 = load double, ptr %10, align 8, !tbaa !98
  %155 = call double @llvm.fmuladd.f64(double 2.400000e+01, double %154, double 2.800000e+01)
  %156 = load double, ptr %11, align 8, !tbaa !98
  %157 = call double @llvm.fmuladd.f64(double 8.000000e+00, double %156, double %155)
  %158 = call double @llvm.fmuladd.f64(double %153, double %157, double 5.000000e+00)
  %159 = load double, ptr %11, align 8, !tbaa !98
  %160 = call double @llvm.fmuladd.f64(double 6.000000e+00, double %159, double %158)
  %161 = load double, ptr %14, align 8, !tbaa !98
  %162 = fmul double %161, 0x3F98618618618618
  %163 = load double, ptr %10, align 8, !tbaa !98
  %164 = load double, ptr %10, align 8, !tbaa !98
  %165 = load double, ptr %10, align 8, !tbaa !98
  %166 = call double @llvm.fmuladd.f64(double 7.200000e+02, double %165, double 1.320000e+03)
  %167 = call double @llvm.fmuladd.f64(double %164, double %166, double 6.620000e+02)
  %168 = call double @llvm.fmuladd.f64(double %163, double %167, double 6.100000e+01)
  %169 = fneg double %162
  %170 = call double @llvm.fmuladd.f64(double %169, double %168, double %160)
  %171 = fneg double %152
  %172 = call double @llvm.fmuladd.f64(double %171, double %170, double %150)
  %173 = fneg double %146
  %174 = call double @llvm.fmuladd.f64(double %173, double %172, double 1.000000e+00)
  %175 = fmul double %144, %174
  %176 = load double, ptr %9, align 8, !tbaa !98
  %177 = fdiv double %175, %176
  %178 = getelementptr inbounds nuw %struct.PJ_LP, ptr %4, i32 0, i32 0
  store double %177, ptr %178, align 8, !tbaa !103
  call void @llvm.lifetime.end.p0(i64 8, ptr %14) #11
  call void @llvm.lifetime.end.p0(i64 8, ptr %13) #11
  call void @llvm.lifetime.end.p0(i64 8, ptr %12) #11
  call void @llvm.lifetime.end.p0(i64 8, ptr %11) #11
  call void @llvm.lifetime.end.p0(i64 8, ptr %10) #11
  call void @llvm.lifetime.end.p0(i64 8, ptr %9) #11
  call void @llvm.lifetime.end.p0(i64 8, ptr %8) #11
  br label %179

179:                                              ; preds = %62, %40
  call void @llvm.lifetime.end.p0(i64 8, ptr %7) #11
  %180 = load { double, double }, ptr %4, align 8
  ret { double, double } %180
}