; Function Attrs: mustprogress uwtable
define internal { double, double } @_ZL12approx_e_inv5PJ_XYP8PJconsts(double %0, double %1, ptr noundef readonly captures(none) %2) #0 {
  %4 = getelementptr inbounds nuw i8, ptr %2, i64 88
  %5 = load ptr, ptr %4, align 8, !tbaa !70
  %6 = getelementptr inbounds nuw i8, ptr %5, i64 8
  %7 = load double, ptr %6, align 8, !tbaa !77
  %8 = getelementptr inbounds nuw i8, ptr %2, i64 488
  %9 = load double, ptr %8, align 8, !tbaa !69
  %10 = fdiv double %1, %9
  %11 = fadd double %7, %10
  %12 = getelementptr inbounds nuw i8, ptr %5, i64 16
  %13 = load ptr, ptr %12, align 8, !tbaa !73
  %14 = tail call noundef double @_Z11pj_inv_mlfndPKd(double noundef %11, ptr noundef %13)
  %15 = tail call double @llvm.fabs.f64(double %14)
  %16 = fcmp ult double %15, 0x3FF921FB54442D18
  br i1 %16, label %20, label %17

17:                                               ; preds = %3
  %18 = fcmp olt double %1, 0.000000e+00
  %19 = select i1 %18, double 0xBFF921FB54442D18, double 0x3FF921FB54442D18
  br label %81

20:                                               ; preds = %3
  %21 = tail call double @sin(double noundef %14) #11, !tbaa !76
  %22 = tail call double @cos(double noundef %14) #11, !tbaa !76
  %23 = tail call double @llvm.fabs.f64(double %22)
  %24 = fcmp ogt double %23, 1.000000e-10
  %25 = fdiv double %21, %22
  %26 = select i1 %24, double %25, double 0.000000e+00
  %27 = load double, ptr %5, align 8, !tbaa !78
  %28 = fmul double %22, %27
  %29 = fmul double %22, %28
  %30 = getelementptr inbounds nuw i8, ptr %2, i64 216
  %31 = load double, ptr %30, align 8, !tbaa !67
  %32 = fneg double %21
  %33 = fmul double %31, %32
  %34 = tail call double @llvm.fmuladd.f64(double %33, double %21, double 1.000000e+00)
  %35 = tail call double @sqrt(double noundef %34) #11, !tbaa !76
  %36 = fmul double %0, %35
  %37 = load double, ptr %8, align 8, !tbaa !69
  %38 = fdiv double %36, %37
  %39 = fmul double %26, %34
  %40 = fmul double %26, %26
  %41 = fmul double %38, %38
  %42 = fmul double %39, %41
  %43 = fsub double 1.000000e+00, %31
  %44 = fdiv double %42, %43
  %45 = tail call double @llvm.fmuladd.f64(double %29, double -9.000000e+00, double 3.000000e+00)
  %46 = tail call double @llvm.fmuladd.f64(double %40, double %45, double 5.000000e+00)
  %47 = tail call double @llvm.fmuladd.f64(double %29, double -4.000000e+00, double 1.000000e+00)
  %48 = tail call double @llvm.fmuladd.f64(double %29, double %47, double %46)
  %49 = tail call double @llvm.fmuladd.f64(double %29, double -2.520000e+02, double 9.000000e+01)
  %50 = tail call double @llvm.fmuladd.f64(double %40, double 4.500000e+01, double %49)
  %51 = tail call double @llvm.fmuladd.f64(double %40, double %50, double 6.100000e+01)
  %52 = tail call double @llvm.fmuladd.f64(double %29, double 4.600000e+01, double %51)
  %53 = tail call double @llvm.fmuladd.f64(double %40, double 1.575000e+03, double 4.095000e+03)
  %54 = tail call double @llvm.fmuladd.f64(double %40, double %53, double 3.633000e+03)
  %55 = tail call double @llvm.fmuladd.f64(double %40, double %54, double 1.385000e+03)
  %56 = fmul double %41, 0xBF92492492492492
  %57 = tail call double @llvm.fmuladd.f64(double %56, double %55, double %52)
  %58 = fmul double %41, 0xBFA1111111111111
  %59 = tail call double @llvm.fmuladd.f64(double %58, double %57, double %48)
  %60 = fmul double %41, 0xBFB5555555555555
  %61 = tail call double @llvm.fmuladd.f64(double %60, double %59, double 1.000000e+00)
  %62 = fmul double %44, -5.000000e-01
  %63 = tail call double @llvm.fmuladd.f64(double %62, double %61, double %14)
  %64 = tail call double @llvm.fmuladd.f64(double %40, double 2.000000e+00, double 1.000000e+00)
  %65 = fadd double %29, %64
  %66 = tail call double @llvm.fmuladd.f64(double %40, double 2.400000e+01, double 2.800000e+01)
  %67 = tail call double @llvm.fmuladd.f64(double %29, double 8.000000e+00, double %66)
  %68 = tail call double @llvm.fmuladd.f64(double %40, double %67, double 5.000000e+00)
  %69 = tail call double @llvm.fmuladd.f64(double %29, double 6.000000e+00, double %68)
  %70 = tail call double @llvm.fmuladd.f64(double %40, double 7.200000e+02, double 1.320000e+03)
  %71 = tail call double @llvm.fmuladd.f64(double %40, double %70, double 6.620000e+02)
  %72 = tail call double @llvm.fmuladd.f64(double %40, double %71, double 6.100000e+01)
  %73 = fmul double %41, 0xBF98618618618618
  %74 = tail call double @llvm.fmuladd.f64(double %73, double %72, double %69)
  %75 = fmul double %41, -5.000000e-02
  %76 = tail call double @llvm.fmuladd.f64(double %75, double %74, double %65)
  %77 = fmul double %41, 0xBFC5555555555555
  %78 = tail call double @llvm.fmuladd.f64(double %77, double %76, double 1.000000e+00)
  %79 = fmul double %38, %78
  %80 = fdiv double %79, %22
  br label %81

81:                                               ; preds = %20, %17
  %.sroa.4.0 = phi double [ %19, %17 ], [ %63, %20 ]
  %.sroa.053.0 = phi double [ 0.000000e+00, %17 ], [ %80, %20 ]
  %.fca.0.insert = insertvalue { double, double } poison, double %.sroa.053.0, 0
  %.fca.1.insert = insertvalue { double, double } %.fca.0.insert, double %.sroa.4.0, 1
  ret { double, double } %.fca.1.insert
}